; Function Attrs: mustprogress uwtable
define void @_ZN3zmq15send_routing_idEPNS_6pipe_tERKNS_9options_tE(ptr noundef %0, ptr noundef nonnull readonly align 8 captures(none) dereferenceable(1336) %1) local_unnamed_addr #0 {
  %3 = alloca %"class.zmq::msg_t", align 8
  call void @llvm.lifetime.start.p0(i64 64, ptr nonnull %3) #25
  %4 = getelementptr inbounds nuw i8, ptr %1, i64 16
  %5 = load i8, ptr %4, align 8, !tbaa !67
  %6 = zext i8 %5 to i64
  %7 = call noundef i32 @_ZN3zmq5msg_t9init_sizeEm(ptr noundef nonnull align 8 dereferenceable(64) %3, i64 noundef %6)
  %.not = icmp eq i32 %7, 0
  br i1 %.not, label %16, label %8, !prof !47

8:                                                ; preds = %2
  %9 = tail call ptr @__errno_location() #28
  %10 = load i32, ptr %9, align 4, !tbaa !25
  %11 = call ptr @strerror(i32 noundef %10) #25
  %12 = load ptr, ptr @stderr, align 8, !tbaa !21
  %13 = call i32 (ptr, ptr, ...) @fprintf(ptr noundef %12, ptr noundef nonnull @.str.3, ptr noundef %11, ptr noundef nonnull @.str.1, i32 noundef 56) #26
  %14 = load ptr, ptr @stderr, align 8, !tbaa !21
  %15 = call i32 @fflush(ptr noundef %14)
  call void @_ZN3zmq9zmq_abortEPKc(ptr noundef %11)
  br label %16

16:                                               ; preds = %8, %2
  %17 = call noundef ptr @_ZN3zmq5msg_t4dataEv(ptr noundef nonnull align 8 dereferenceable(64) %3)
  %18 = getelementptr inbounds nuw i8, ptr %1, i64 17
  %19 = load i8, ptr %4, align 8, !tbaa !67
  %20 = zext i8 %19 to i64
  call void @llvm.memcpy.p0.p0.i64(ptr align 1 %17, ptr nonnull align 1 %18, i64 %20, i1 false)
  call void @_ZN3zmq5msg_t9set_flagsEh(ptr noundef nonnull align 8 dereferenceable(64) %3, i8 noundef zeroext 64)
  %21 = getelementptr inbounds nuw i8, ptr %0, i64 89
  %22 = load i8, ptr %21, align 1, !tbaa !101, !range !7, !noundef !8
  %23 = trunc nuw i8 %22 to i1
  %24 = getelementptr inbounds nuw i8, ptr %0, i64 152
  %25 = load i32, ptr %24, align 8
  %26 = icmp eq i32 %25, 0
  %.not2.i.i = select i1 %23, i1 %26, i1 false
  br i1 %.not2.i.i, label %27, label %_ZN3zmq6pipe_t5writeEPKNS_5msg_tE.exit, !prof !47

27:                                               ; preds = %16
  %28 = getelementptr inbounds nuw i8, ptr %0, i64 92
  %29 = load i32, ptr %28, align 4, !tbaa !102
  %30 = icmp slt i32 %29, 1
  %31 = getelementptr inbounds nuw i8, ptr %0, i64 120
  %32 = load i64, ptr %31, align 8
  %33 = getelementptr inbounds nuw i8, ptr %0, i64 128
  %34 = load i64, ptr %33, align 8
  %35 = sub i64 %32, %34
  %36 = zext nneg i32 %29 to i64
  %37 = icmp ult i64 %35, %36
  %38 = select i1 %30, i1 true, i1 %37
  br i1 %38, label %_ZN3zmq6pipe_t11check_writeEv.exit.i, label %39, !prof !47

39:                                               ; preds = %27
  store i8 0, ptr %21, align 1, !tbaa !101
  br label %_ZN3zmq6pipe_t5writeEPKNS_5msg_tE.exit

_ZN3zmq6pipe_t11check_writeEv.exit.i:             ; preds = %27
  %40 = call noundef zeroext i8 @_ZNK3zmq5msg_t5flagsEv(ptr noundef nonnull align 8 dereferenceable(64) %3)
  %41 = and i8 %40, 1
  %42 = icmp ne i8 %41, 0
  %43 = call noundef zeroext i1 @_ZNK3zmq5msg_t13is_routing_idEv(ptr noundef nonnull align 8 dereferenceable(64) %3)
  %44 = getelementptr inbounds nuw i8, ptr %0, i64 80
  %45 = load ptr, ptr %44, align 8, !tbaa !103
  %46 = load ptr, ptr %45, align 8, !tbaa !9
  %47 = getelementptr inbounds nuw i8, ptr %46, i64 16
  %48 = load ptr, ptr %47, align 8
  call void %48(ptr noundef nonnull align 8 dereferenceable(8) %45, ptr noundef nonnull align 8 dereferenceable(64) %3, i1 noundef zeroext %42)
  %brmerge.i = or i1 %43, %42
  br i1 %brmerge.i, label %_ZN3zmq6pipe_t5writeEPKNS_5msg_tE.exit.thread, label %49

49:                                               ; preds = %_ZN3zmq6pipe_t11check_writeEv.exit.i
  %50 = load i64, ptr %31, align 8, !tbaa !104
  %51 = add i64 %50, 1
  store i64 %51, ptr %31, align 8, !tbaa !104
  br label %_ZN3zmq6pipe_t5writeEPKNS_5msg_tE.exit.thread

_ZN3zmq6pipe_t5writeEPKNS_5msg_tE.exit:           ; preds = %39, %16
  %52 = load ptr, ptr @stderr, align 8, !tbaa !21
  %53 = call i32 (ptr, ptr, ...) @fprintf(ptr noundef %52, ptr noundef nonnull @.str.4, ptr noundef nonnull @.str.5, ptr noundef nonnull @.str.1, i32 noundef 60) #26
  %54 = load ptr, ptr @stderr, align 8, !tbaa !21
  %55 = call i32 @fflush(ptr noundef %54)
  call void @_ZN3zmq9zmq_abortEPKc(ptr noundef nonnull @.str.5)
  br label %_ZN3zmq6pipe_t5writeEPKNS_5msg_tE.exit.thread

_ZN3zmq6pipe_t5writeEPKNS_5msg_tE.exit.thread:    ; preds = %_ZN3zmq6pipe_t11check_writeEv.exit.i, %49, %_ZN3zmq6pipe_t5writeEPKNS_5msg_tE.exit
  %56 = load i32, ptr %24, align 8, !tbaa !105
  %57 = icmp eq i32 %56, 3
  br i1 %57, label %_ZN3zmq6pipe_t5flushEv.exit, label %58

58:                                               ; preds = %_ZN3zmq6pipe_t5writeEPKNS_5msg_tE.exit.thread
  %59 = getelementptr inbounds nuw i8, ptr %0, i64 80
  %60 = load ptr, ptr %59, align 8, !tbaa !103
  %.not.i = icmp eq ptr %60, null
  br i1 %.not.i, label %_ZN3zmq6pipe_t5flushEv.exit, label %61

61:                                               ; preds = %58
  %62 = load ptr, ptr %60, align 8, !tbaa !9
  %63 = getelementptr inbounds nuw i8, ptr %62, i64 32
  %64 = load ptr, ptr %63, align 8
  %65 = call noundef zeroext i1 %64(ptr noundef nonnull align 8 dereferenceable(8) %60)
  br i1 %65, label %_ZN3zmq6pipe_t5flushEv.exit, label %66

66:                                               ; preds = %61
  %67 = getelementptr inbounds nuw i8, ptr %0, i64 136
  %68 = load ptr, ptr %67, align 8, !tbaa !29
  call void @_ZN3zmq8object_t18send_activate_readEPNS_6pipe_tE(ptr noundef nonnull align 8 dereferenceable(328) %0, ptr noundef %68)
  br label %_ZN3zmq6pipe_t5flushEv.exit

_ZN3zmq6pipe_t5flushEv.exit:                      ; preds = %_ZN3zmq6pipe_t5writeEPKNS_5msg_tE.exit.thread, %58, %61, %66
  call void @llvm.lifetime.end.p0(i64 64, ptr nonnull %3) #25
  ret void
}